; Function Attrs: inlinehint mustprogress nofree norecurse nosync nounwind willreturn memory(none) uwtable
define internal fastcc noundef range(i32 0, 64) i32 @_ZL3ctzm(i64 noundef range(i64 0, 17592186044416) %0) unnamed_addr #17 {
  %.not = icmp eq i64 %0, 0
  br i1 %.not, label %20, label %2

2:                                                ; preds = %1
  %.mask = and i64 %0, 4294967295
  %3 = icmp eq i64 %.mask, 0
  %4 = lshr exact i64 %0, 32
  %spec.select = select i1 %3, i64 %4, i64 %0
  %spec.select33 = select i1 %3, i32 32, i32 0
  %.mask28 = and i64 %spec.select, 65535
  %5 = icmp eq i64 %.mask28, 0
  %6 = or disjoint i32 %spec.select33, 16
  %7 = lshr exact i64 %spec.select, 16
  %.122 = select i1 %5, i64 %7, i64 %spec.select
  %.1 = select i1 %5, i32 %6, i32 %spec.select33
  %.mask29 = and i64 %.122, 255
  %8 = icmp eq i64 %.mask29, 0
  %9 = or disjoint i32 %.1, 8
  %10 = lshr exact i64 %.122, 8
  %.223 = select i1 %8, i64 %10, i64 %.122
  %.2 = select i1 %8, i32 %9, i32 %.1
  %.mask30 = and i64 %.223, 15
  %11 = icmp eq i64 %.mask30, 0
  %12 = or disjoint i32 %.2, 4
  %13 = lshr exact i64 %.223, 4
  %.324 = select i1 %11, i64 %13, i64 %.223
  %.3 = select i1 %11, i32 %12, i32 %.2
  %.mask31 = and i64 %.324, 3
  %14 = icmp eq i64 %.mask31, 0
  %15 = add nuw nsw i32 %.3, 2
  %16 = lshr exact i64 %.324, 2
  %.425 = select i1 %14, i64 %16, i64 %.324
  %.4 = select i1 %14, i32 %15, i32 %.3
  %17 = trunc i64 %.425 to i32
  %18 = and i32 %17, 1
  %19 = xor i32 %18, 1
  %.5 = add nuw nsw i32 %19, %.4
  br label %20

20:                                               ; preds = %1, %2
  %.026 = phi i32 [ %.5, %2 ], [ 0, %1 ]
  ret i32 %.026
}